; Function Attrs: mustprogress nofree norecurse nosync nounwind willreturn memory(read, inaccessiblemem: none) uwtable
define hidden noundef zeroext i1 @_ZNK7datalog9ddnf_node14contains_childEPS0_(ptr noundef nonnull readonly align 8 captures(none) dereferenceable(96) %0, ptr noundef readnone captures(address) %1) local_unnamed_addr #8 align 2 {
  %3 = getelementptr inbounds nuw i8, ptr %0, i64 24
  %4 = load ptr, ptr %3, align 8, !tbaa !10
  %5 = icmp eq ptr %4, null
  br i1 %5, label %_ZNK15ref_vector_coreIN7datalog9ddnf_nodeE19ref_manager_wrapperIS1_NS0_8ddnf_mgrEEE8containsEPS1_.exit, label %_ZNK15ref_vector_coreIN7datalog9ddnf_nodeE19ref_manager_wrapperIS1_NS0_8ddnf_mgrEEE4sizeEv.exit.i

_ZNK15ref_vector_coreIN7datalog9ddnf_nodeE19ref_manager_wrapperIS1_NS0_8ddnf_mgrEEE4sizeEv.exit.i: ; preds = %2
  %6 = getelementptr inbounds i8, ptr %4, i64 -4
  %7 = load i32, ptr %6, align 4, !tbaa !57
  %.not9.not.i = icmp eq i32 %7, 0
  br i1 %.not9.not.i, label %_ZNK15ref_vector_coreIN7datalog9ddnf_nodeE19ref_manager_wrapperIS1_NS0_8ddnf_mgrEEE8containsEPS1_.exit, label %.lr.ph.preheader.i

.lr.ph.preheader.i:                               ; preds = %_ZNK15ref_vector_coreIN7datalog9ddnf_nodeE19ref_manager_wrapperIS1_NS0_8ddnf_mgrEEE4sizeEv.exit.i
  %wide.trip.count.i = zext i32 %7 to i64
  br label %.lr.ph.i

.lr.ph.i:                                         ; preds = %.lr.ph.i, %.lr.ph.preheader.i
  %indvars.iv.i = phi i64 [ 0, %.lr.ph.preheader.i ], [ %indvars.iv.next.i, %.lr.ph.i ]
  %8 = getelementptr inbounds nuw ptr, ptr %4, i64 %indvars.iv.i
  %9 = load ptr, ptr %8, align 8, !tbaa !58
  %10 = icmp eq ptr %9, %1
  %indvars.iv.next.i = add nuw nsw i64 %indvars.iv.i, 1
  %exitcond.not.i = icmp eq i64 %indvars.iv.next.i, %wide.trip.count.i
  %or.cond = select i1 %10, i1 true, i1 %exitcond.not.i
  br i1 %or.cond, label %_ZNK15ref_vector_coreIN7datalog9ddnf_nodeE19ref_manager_wrapperIS1_NS0_8ddnf_mgrEEE8containsEPS1_.exit, label %.lr.ph.i, !llvm.loop !90

_ZNK15ref_vector_coreIN7datalog9ddnf_nodeE19ref_manager_wrapperIS1_NS0_8ddnf_mgrEEE8containsEPS1_.exit: ; preds = %.lr.ph.i, %2, %_ZNK15ref_vector_coreIN7datalog9ddnf_nodeE19ref_manager_wrapperIS1_NS0_8ddnf_mgrEEE4sizeEv.exit.i
  %.not.lcssa.i = phi i1 [ false, %_ZNK15ref_vector_coreIN7datalog9ddnf_nodeE19ref_manager_wrapperIS1_NS0_8ddnf_mgrEEE4sizeEv.exit.i ], [ false, %2 ], [ %10, %.lr.ph.i ]
  ret i1 %.not.lcssa.i
}